target datalayout = "e-m:e-p270:32:32-p271:32:32-p272:64:64-i64:64-i128:128-f80:128-n8:16:32:64-S128"
target triple = "x86_64-pc-linux-gnu"

%struct.sheng = type { [256 x <2 x i64>], i32, i32, i32, i32, i8, i8, i8, i8, i32 }

; Function Attrs: alwaysinline nounwind uwtable
define internal ptr @get_sheng(ptr noundef %0) #2 {
  %2 = alloca ptr, align 8
  store ptr %0, ptr %2, align 8
  %3 = load ptr, ptr %2, align 8
  %4 = getelementptr inbounds nuw i8, ptr %3, i64 64
  ret ptr %4
}

; Function Attrs: nounwind uwtable
define hidden signext i8 @nfaExecSheng_initCompressedState(ptr noundef %0, i64 noundef %1, ptr noundef %2, i8 noundef zeroext %3) #0 {
  %5 = alloca ptr, align 8
  %6 = alloca i64, align 8
  %7 = alloca ptr, align 8
  %8 = alloca i8, align 1
  %9 = alloca ptr, align 8
  %10 = alloca ptr, align 8
  store ptr %0, ptr %5, align 8
  store i64 %1, ptr %6, align 8
  store ptr %2, ptr %7, align 8
  store i8 %3, ptr %8, align 1
  call void @llvm.lifetime.start.p0(i64 8, ptr %9) #7
  %11 = load ptr, ptr %5, align 8
  %12 = call ptr @get_sheng(ptr noundef %11)
  store ptr %12, ptr %9, align 8
  call void @llvm.lifetime.start.p0(i64 8, ptr %10) #7
  %13 = load ptr, ptr %7, align 8
  store ptr %13, ptr %10, align 8
  %14 = load i64, ptr %6, align 8
  %15 = icmp ne i64 %14, 0
  br i1 %15, label %16, label %21

16:                                               ; preds = %4
  %17 = load ptr, ptr %9, align 8
  %18 = getelementptr inbounds nuw %struct.sheng, ptr %17, i32 0, i32 7
  %19 = load i8, ptr %18, align 2
  %20 = zext i8 %19 to i32
  br label %26

21:                                               ; preds = %4
  %22 = load ptr, ptr %9, align 8
  %23 = getelementptr inbounds nuw %struct.sheng, ptr %22, i32 0, i32 6
  %24 = load i8, ptr %23, align 1
  %25 = zext i8 %24 to i32
  br label %26

26:                                               ; preds = %21, %16
  %27 = phi i32 [ %20, %16 ], [ %25, %21 ]
  %28 = trunc i32 %27 to i8
  %29 = load ptr, ptr %10, align 8
  store i8 %28, ptr %29, align 1
  %30 = load ptr, ptr %10, align 8
  %31 = load i8, ptr %30, align 1
  %32 = zext i8 %31 to i32
  %33 = and i32 %32, 32
  %34 = icmp ne i32 %33, 0
  %35 = xor i1 %34, true
  %36 = zext i1 %35 to i32
  %37 = trunc i32 %36 to i8
  call void @llvm.lifetime.end.p0(i64 8, ptr %10) #7
  call void @llvm.lifetime.end.p0(i64 8, ptr %9) #7
  ret i8 %37
}