; Function Attrs: mustprogress nofree norecurse nosync nounwind willreturn memory(argmem: readwrite) uwtable
define hidden signext range(i8 0, 2) i8 @nfaExecSheng_initCompressedState(ptr noundef readonly captures(none) %0, i64 noundef %1, ptr noundef writeonly captures(none) initializes((0, 1)) %2, i8 noundef zeroext %3) local_unnamed_addr #5 {
  %.not = icmp eq i64 %1, 0
  %.in.in.v = select i1 %.not, i64 4177, i64 4178
  %.in.in = getelementptr inbounds nuw i8, ptr %0, i64 %.in.in.v
  %.in6 = load i8, ptr %.in.in, align 1
  store i8 %.in6, ptr %2, align 1
  %5 = lshr i8 %.in6, 5
  %.lobit = and i8 %5, 1
  %6 = xor i8 %.lobit, 1
  ret i8 %6
}